; Function Attrs: nounwind sspstrong uwtable
define internal i64 @dump(i32 noundef %0, ptr noundef readonly captures(none) %1, i64 %2) #0 {
  %4 = alloca %struct.pm_string_t, align 8
  %5 = alloca %struct.pm_options, align 8
  call void @llvm.lifetime.start.p0(i64 24, ptr nonnull %4) #9
  call void @llvm.lifetime.start.p0(i64 104, ptr nonnull %5) #9
  call void @llvm.memset.p0.i64(ptr noundef nonnull align 8 dereferenceable(104) %5, i8 0, i64 104, i1 false)
  call fastcc void @string_options(i32 noundef %0, ptr noundef %1, ptr noundef %4, ptr noundef %5)
  %6 = call fastcc i64 @dump_input(ptr noundef %4, ptr noundef %5)
  %7 = getelementptr inbounds nuw i8, ptr %5, i64 97
  %8 = load i8, ptr %7, align 1, !tbaa !43, !range !44, !noundef !45
  %9 = trunc nuw i8 %8 to i1
  br i1 %9, label %10, label %12

10:                                               ; preds = %3
  %11 = call i64 @rb_obj_freeze(i64 noundef %6) #9
  br label %12

12:                                               ; preds = %10, %3
  call void @pm_string_free(ptr noundef nonnull %4) #9
  call void @pm_options_free(ptr noundef nonnull %5) #9
  call void @llvm.lifetime.end.p0(i64 104, ptr nonnull %5) #9
  call void @llvm.lifetime.end.p0(i64 24, ptr nonnull %4) #9
  ret i64 %6
}